target datalayout = "e-m:e-p270:32:32-p271:32:32-p272:64:64-i64:64-i128:128-f80:128-n8:16:32:64-S128"
target triple = "x86_64-pc-linux-gnu"

%struct.darktable_t = type { %struct.dt_codepath_t, i32, i32, ptr, ptr, ptr, ptr, ptr, ptr, ptr, ptr, ptr, ptr, ptr, ptr, ptr, ptr, ptr, ptr, ptr, ptr, ptr, ptr, ptr, ptr, ptr, ptr, ptr, ptr, ptr, [64 x %struct.dt_pthread_mutex_t], %struct.dt_pthread_mutex_t, %struct.dt_pthread_mutex_t, %struct.dt_pthread_mutex_t, %struct.dt_pthread_mutex_t, %struct.dt_pthread_mutex_t, ptr, ptr, ptr, ptr, ptr, ptr, ptr, ptr, ptr, ptr, ptr, ptr, %struct.dt_lua_state_t, ptr, double, ptr, i32, [46 x i32], i32, ptr, ptr, %struct.dt_sys_resources_t, %struct.dt_backthumb_t, %struct.dt_gimp_t }
%struct.dt_codepath_t = type { i8, [3 x i8] }
%struct.dt_pthread_mutex_t = type { %union.pthread_mutex_t }
%union.pthread_mutex_t = type { %struct.__pthread_mutex_s }
%struct.__pthread_mutex_s = type { i32, i32, i32, i32, i32, i16, i16, %struct.__pthread_internal_list }
%struct.__pthread_internal_list = type { ptr, ptr }
%struct.dt_lua_state_t = type { i32 }
%struct.dt_sys_resources_t = type { i64, i64, ptr, ptr, i32, i32, i32 }
%struct.dt_backthumb_t = type { double, double, i32, i32, i32, i32 }
%struct.dt_gimp_t = type { i32, ptr, ptr, i32, i32 }

@.str = private unnamed_addr constant [10 x i8] c"filmstrip\00", align 1
@.str.1 = private unnamed_addr constant [5 x i8] c"draw\00", align 1
@darktable = external local_unnamed_addr global %struct.darktable_t, align 8

; Function Attrs: mustprogress nofree norecurse nosync nounwind willreturn memory(none) uwtable
define noundef i32 @dt_module_dt_version() local_unnamed_addr #0 {
  ret i32 25
}

; Function Attrs: mustprogress nofree norecurse nosync nounwind willreturn memory(none) uwtable
define noundef i32 @dt_module_mod_version() local_unnamed_addr #0 {
  ret i32 1
}

; Function Attrs: nounwind uwtable
define ptr @name(ptr nocapture noundef readnone %0) local_unnamed_addr #1 {
  %2 = tail call ptr @dcgettext(ptr noundef null, ptr noundef nonnull @.str, i32 noundef 5) #7
  ret ptr %2
}

; Function Attrs: nounwind
declare ptr @dcgettext(ptr noundef, ptr noundef, i32 noundef) local_unnamed_addr #2

; Function Attrs: mustprogress nofree norecurse nosync nounwind willreturn memory(none) uwtable
define noundef i32 @views(ptr nocapture noundef readnone %0) local_unnamed_addr #0 {
  ret i32 47
}

; Function Attrs: mustprogress nofree norecurse nosync nounwind willreturn memory(none) uwtable
define noundef i32 @container(ptr nocapture noundef readnone %0) local_unnamed_addr #0 {
  ret i32 15
}

; Function Attrs: mustprogress nofree norecurse nosync nounwind willreturn memory(none) uwtable
define noundef i32 @expandable(ptr nocapture noundef readnone %0) local_unnamed_addr #0 {
  ret i32 0
}

; Function Attrs: mustprogress nofree norecurse nosync nounwind willreturn memory(none) uwtable
define noundef i32 @position(ptr nocapture noundef readnone %0) local_unnamed_addr #0 {
  ret i32 1001
}

; Function Attrs: nounwind uwtable
define void @gui_init(ptr noundef %0) local_unnamed_addr #1 {
  %2 = tail call ptr @gtk_event_box_new() #7
  %3 = getelementptr inbounds i8, ptr %0, i64 416
  store ptr %2, ptr %3, align 8, !tbaa !6
  %4 = tail call ptr @g_type_check_instance_cast(ptr noundef %2, i64 noundef 80) #7
  %5 = tail call i64 @g_signal_connect_data(ptr noundef %4, ptr noundef nonnull @.str.1, ptr noundef nonnull @_lib_filmstrip_draw_callback, ptr noundef %0, ptr noundef null, i32 noundef 0) #7
  %6 = load ptr, ptr getelementptr inbounds (%struct.darktable_t, ptr @darktable, i64 0, i32 11), align 8, !tbaa !13
  %7 = getelementptr inbounds i8, ptr %6, i64 416
  store ptr %0, ptr %7, align 8, !tbaa !23
  ret void
}

declare ptr @gtk_event_box_new() local_unnamed_addr #3

declare i64 @g_signal_connect_data(ptr noundef, ptr noundef, ptr noundef, ptr noundef, ptr noundef, i32 noundef) local_unnamed_addr #3

declare ptr @g_type_check_instance_cast(ptr noundef, i64 noundef) local_unnamed_addr #3

; Function Attrs: nounwind uwtable
define internal noundef i32 @_lib_filmstrip_draw_callback(ptr noundef %0, ptr nocapture readnone %1, ptr nocapture readnone %2) #1 {
  %4 = tail call i64 @gtk_bin_get_type() #8
  %5 = tail call ptr @g_type_check_instance_cast(ptr noundef %0, i64 noundef %4) #7
  %6 = tail call ptr @gtk_bin_get_child(ptr noundef %5) #7
  %7 = icmp eq ptr %6, null
  br i1 %7, label %8, label %15

8:                                                ; preds = %3
  %9 = load ptr, ptr getelementptr inbounds (%struct.darktable_t, ptr @darktable, i64 0, i32 14), align 8, !tbaa !37
  %10 = load ptr, ptr %9, align 8, !tbaa !38
  %11 = tail call ptr @dt_ui_thumbtable(ptr noundef %10) #7
  tail call void @dt_thumbtable_set_parent(ptr noundef %11, ptr noundef %0, i32 noundef 2) #7
  tail call void @gtk_widget_show(ptr noundef %0) #7
  %12 = getelementptr inbounds i8, ptr %11, i64 16
  %13 = load ptr, ptr %12, align 8, !tbaa !42
  tail call void @gtk_widget_show(ptr noundef %13) #7
  %14 = load ptr, ptr %12, align 8, !tbaa !42
  tail call void @gtk_widget_queue_draw(ptr noundef %14) #7
  br label %15

15:                                               ; preds = %8, %3
  ret i32 0
}

; Function Attrs: mustprogress nounwind willreturn uwtable
define void @gui_cleanup(ptr nocapture noundef %0) local_unnamed_addr #4 {
  %2 = load ptr, ptr getelementptr inbounds (%struct.darktable_t, ptr @darktable, i64 0, i32 11), align 8, !tbaa !13
  %3 = getelementptr inbounds i8, ptr %2, i64 416
  store ptr null, ptr %3, align 8, !tbaa !23
  %4 = getelementptr inbounds i8, ptr %0, i64 280
  %5 = load ptr, ptr %4, align 8, !tbaa !46
  tail call void @free(ptr noundef %5) #7
  store ptr null, ptr %4, align 8, !tbaa !46
  ret void
}

; Function Attrs: mustprogress nounwind willreturn allockind("free") memory(argmem: readwrite, inaccessiblemem: readwrite)
declare void @free(ptr allocptr nocapture noundef) local_unnamed_addr #5

declare ptr @gtk_bin_get_child(ptr noundef) local_unnamed_addr #3

; Function Attrs: mustprogress nofree nosync nounwind willreturn memory(none)
declare i64 @gtk_bin_get_type() local_unnamed_addr #6

declare ptr @dt_ui_thumbtable(ptr noundef) local_unnamed_addr #3

declare void @dt_thumbtable_set_parent(ptr noundef, ptr noundef, i32 noundef) local_unnamed_addr #3

declare void @gtk_widget_show(ptr noundef) local_unnamed_addr #3

declare void @gtk_widget_queue_draw(ptr noundef) local_unnamed_addr #3


!llvm.module.flags = !{!0, !1, !2, !3, !4, !5}

!0 = !{i32 7, !"Dwarf Version", i32 5}
!1 = !{i32 2, !"Debug Info Version", i32 3}
!2 = !{i32 1, !"wchar_size", i32 4}
!3 = !{i32 8, !"PIC Level", i32 2}
!4 = !{i32 7, !"uwtable", i32 2}
!5 = !{i32 7, !"debug-info-assignment-tracking", i1 true}
!6 = !{!7, !12, i64 416}
!7 = !{!"dt_lib_module_t", !8, i64 0, !12, i64 48, !12, i64 56, !12, i64 64, !12, i64 72, !12, i64 80, !12, i64 88, !12, i64 96, !12, i64 104, !12, i64 112, !12, i64 120, !12, i64 128, !12, i64 136, !12, i64 144, !12, i64 152, !12, i64 160, !12, i64 168, !12, i64 176, !12, i64 184, !12, i64 192, !12, i64 200, !12, i64 208, !12, i64 216, !12, i64 224, !12, i64 232, !12, i64 240, !12, i64 248, !12, i64 256, !12, i64 264, !12, i64 272, !12, i64 280, !10, i64 288, !12, i64 416, !12, i64 424, !9, i64 432, !12, i64 440, !12, i64 448, !12, i64 456, !12, i64 464, !9, i64 472, !9, i64 476}
!8 = !{!"dt_action_t", !9, i64 0, !12, i64 8, !12, i64 16, !12, i64 24, !12, i64 32, !12, i64 40}
!9 = !{!"int", !10, i64 0}
!10 = !{!"omnipotent char", !11, i64 0}
!11 = !{!"Simple C/C++ TBAA"}
!12 = !{!"any pointer", !10, i64 0}
!13 = !{!14, !12, i64 80}
!14 = !{!"darktable_t", !15, i64 0, !9, i64 4, !9, i64 8, !12, i64 16, !12, i64 24, !12, i64 32, !12, i64 40, !12, i64 48, !12, i64 56, !12, i64 64, !12, i64 72, !12, i64 80, !12, i64 88, !12, i64 96, !12, i64 104, !12, i64 112, !12, i64 120, !12, i64 128, !12, i64 136, !12, i64 144, !12, i64 152, !12, i64 160, !12, i64 168, !12, i64 176, !12, i64 184, !12, i64 192, !12, i64 200, !12, i64 208, !12, i64 216, !12, i64 224, !10, i64 232, !16, i64 2792, !16, i64 2832, !16, i64 2872, !16, i64 2912, !16, i64 2952, !12, i64 2992, !12, i64 3000, !12, i64 3008, !12, i64 3016, !12, i64 3024, !12, i64 3032, !12, i64 3040, !12, i64 3048, !12, i64 3056, !12, i64 3064, !12, i64 3072, !12, i64 3080, !17, i64 3088, !12, i64 3096, !18, i64 3104, !12, i64 3112, !9, i64 3120, !10, i64 3124, !9, i64 3308, !12, i64 3312, !12, i64 3320, !19, i64 3328, !21, i64 3376, !22, i64 3408}
!15 = !{!"dt_codepath_t", !9, i64 0}
!16 = !{!"dt_pthread_mutex_t", !10, i64 0}
!17 = !{!"", !9, i64 0}
!18 = !{!"double", !10, i64 0}
!19 = !{!"dt_sys_resources_t", !20, i64 0, !20, i64 8, !12, i64 16, !12, i64 24, !9, i64 32, !9, i64 36, !9, i64 40}
!20 = !{!"long", !10, i64 0}
!21 = !{!"dt_backthumb_t", !18, i64 0, !18, i64 8, !9, i64 16, !9, i64 20, !9, i64 24, !9, i64 28}
!22 = !{!"dt_gimp_t", !9, i64 0, !12, i64 8, !12, i64 16, !9, i64 24, !9, i64 28}
!23 = !{!24, !12, i64 416}
!24 = !{!"dt_view_manager_t", !12, i64 0, !12, i64 8, !12, i64 16, !25, i64 24, !26, i64 56, !27, i64 88, !27, i64 128, !28, i64 168, !29, i64 216, !12, i64 232, !12, i64 240, !12, i64 248, !12, i64 256, !12, i64 264, !30, i64 272}
!25 = !{!"dt_history_copy_item_t", !12, i64 0, !12, i64 8, !9, i64 16, !9, i64 20, !9, i64 24}
!26 = !{!"", !12, i64 0, !12, i64 8, !12, i64 16, !9, i64 24, !9, i64 28}
!27 = !{!"dt_act_on_cache_t", !12, i64 0, !9, i64 8, !9, i64 12, !9, i64 16, !9, i64 20, !12, i64 24, !9, i64 32, !9, i64 36}
!28 = !{!"", !12, i64 0, !12, i64 8, !12, i64 16, !12, i64 24, !12, i64 32, !12, i64 40}
!29 = !{!"", !9, i64 0, !9, i64 4, !9, i64 8}
!30 = !{!"", !31, i64 0, !31, i64 16, !32, i64 32, !33, i64 64, !31, i64 88, !34, i64 104, !35, i64 144, !31, i64 152, !36, i64 168, !32, i64 264, !35, i64 296, !31, i64 304}
!31 = !{!"", !12, i64 0, !12, i64 8}
!32 = !{!"", !12, i64 0, !12, i64 8, !12, i64 16, !12, i64 24}
!33 = !{!"", !12, i64 0, !12, i64 8, !12, i64 16}
!34 = !{!"", !12, i64 0, !12, i64 8, !12, i64 16, !12, i64 24, !12, i64 32}
!35 = !{!"", !12, i64 0}
!36 = !{!"", !12, i64 0, !12, i64 8, !12, i64 16, !12, i64 24, !12, i64 32, !12, i64 40, !12, i64 48, !12, i64 56, !12, i64 64, !12, i64 72, !12, i64 80, !12, i64 88}
!37 = !{!14, !12, i64 104}
!38 = !{!39, !12, i64 0}
!39 = !{!"dt_gui_gtk_t", !12, i64 0, !40, i64 8, !41, i64 72, !12, i64 96, !12, i64 104, !12, i64 112, !9, i64 120, !10, i64 128, !9, i64 1376, !9, i64 1380, !9, i64 1384, !9, i64 1388, !9, i64 1392, !18, i64 1400, !18, i64 1408, !18, i64 1416, !18, i64 1424, !12, i64 1432, !18, i64 1440, !18, i64 1448, !18, i64 1456, !18, i64 1464, !9, i64 1472, !9, i64 1476, !10, i64 1480, !9, i64 5576, !9, i64 5580, !9, i64 5584, !16, i64 5592}
!40 = !{!"dt_gui_widgets_t", !12, i64 0, !12, i64 8, !12, i64 16, !12, i64 24, !12, i64 32, !12, i64 40, !9, i64 48, !9, i64 52, !9, i64 56}
!41 = !{!"dt_gui_scrollbars_t", !12, i64 0, !12, i64 8, !9, i64 16}
!42 = !{!43, !12, i64 16}
!43 = !{!"dt_thumbtable_t", !9, i64 0, !9, i64 4, !9, i64 8, !9, i64 12, !12, i64 16, !12, i64 24, !9, i64 32, !9, i64 36, !9, i64 40, !9, i64 44, !9, i64 48, !9, i64 52, !9, i64 56, !9, i64 60, !44, i64 64, !9, i64 80, !9, i64 84, !9, i64 88, !9, i64 92, !9, i64 96, !9, i64 100, !12, i64 104, !9, i64 112, !9, i64 116, !9, i64 120, !12, i64 128, !9, i64 136, !9, i64 140, !9, i64 144, !9, i64 148, !9, i64 152, !9, i64 156, !45, i64 160}
!44 = !{!"_cairo_rectangle_int", !9, i64 0, !9, i64 4, !9, i64 8, !9, i64 12}
!45 = !{!"float", !10, i64 0}
!46 = !{!7, !12, i64 280}
